target datalayout = "e-m:e-p270:32:32-p271:32:32-p272:64:64-i64:64-i128:128-f80:128-n8:16:32:64-S128"
target triple = "x86_64-pc-linux-gnu"

%struct.MemoryRegion = type { %struct.Object, i8, i8, i8, i8, i8, i8, i8, i8, i8, i8, ptr, ptr, ptr, ptr, ptr, ptr, i32, i128, i64, ptr, i64, i8, i8, i8, i8, ptr, i64, i32, %union.anon, %union.anon.0, %union.anon.1, ptr, i32, ptr, ptr, i8 }
%struct.Object = type { ptr, ptr, ptr, i32, ptr }
%union.anon = type { %struct.QTailQLink }
%struct.QTailQLink = type { ptr, ptr }
%union.anon.0 = type { %struct.QTailQLink }
%union.anon.1 = type { %struct.QTailQLink }
%struct.VFIOPCIDevice = type { %struct.PCIDevice, %struct.VFIODevice, %struct.VFIOINTx, i32, ptr, i64, i32, i64, ptr, i32, ptr, ptr, i32, i32, [6 x %struct.VFIOBAR], ptr, ptr, %struct.PCIHostDeviceAddress, %struct.QemuUUID, %struct.EventNotifier, %struct.EventNotifier, ptr, i32, i32, i32, i32, i32, i32, i32, i32, i32, i32, i32, i8, i8, i8, i8, i8, i8, i8, i8, i8, i8, i8, i8, i8, i8, i32, i8, i8, i8, ptr, %struct.Notifier }
%struct.PCIDevice = type { %struct.DeviceState, i8, i8, ptr, ptr, ptr, ptr, ptr, i32, %struct.PCIReqIDCache, [64 x i8], [7 x %struct.PCIIORegion], %struct.AddressSpace, %struct.MemoryRegion, %struct.MemoryRegion, ptr, ptr, [3 x ptr], i8, i8, i32, i8, i32, ptr, ptr, ptr, ptr, ptr, ptr, %struct.MemoryRegion, %struct.MemoryRegion, %struct.MemoryRegion, ptr, i8, i32, i8, %struct.PCIExpressDevice, ptr, ptr, i32, i8, %struct.MemoryRegion, i32, ptr, ptr, ptr, ptr, i16, %struct.DOECap, ptr, i32, i32 }
%struct.DeviceState = type { %struct.Object, ptr, ptr, i8, i8, i64, i32, i8, ptr, %struct.NamedGPIOListHead, %struct.NamedClockListHead, %struct.BusStateHead, i32, i32, i32, %struct.ResettableState, ptr, %struct.MemReentrancyGuard }
%struct.NamedGPIOListHead = type { ptr }
%struct.NamedClockListHead = type { ptr }
%struct.BusStateHead = type { ptr }
%struct.ResettableState = type { i32, i8, i8 }
%struct.MemReentrancyGuard = type { i8 }
%struct.PCIReqIDCache = type { ptr, i32 }
%struct.PCIIORegion = type { i64, i64, i8, ptr, ptr }
%struct.AddressSpace = type { %struct.rcu_head, ptr, ptr, ptr, i32, i32, ptr, %union.anon.4, %union.anon.5, i64, i64, %struct.QemuMutex, %struct.anon.6 }
%struct.rcu_head = type { ptr, ptr }
%union.anon.4 = type { %struct.QTailQLink }
%union.anon.5 = type { %struct.QTailQLink }
%struct.QemuMutex = type { %union.pthread_mutex_t, i8 }
%union.pthread_mutex_t = type { %struct.__pthread_mutex_s }
%struct.__pthread_mutex_s = type { i32, i32, i32, i32, i32, i16, i16, %struct.__pthread_internal_list }
%struct.__pthread_internal_list = type { ptr, ptr }
%struct.anon.6 = type { ptr }
%struct.PCIExpressDevice = type { i8, i8, i8, i16, %struct.PCIEAERLog, i16, i16, i16, %struct.PCIESriovPF, %struct.PCIESriovVF }
%struct.PCIEAERLog = type { i16, i16, ptr }
%struct.PCIESriovPF = type { i16, [7 x i8], ptr, ptr }
%struct.PCIESriovVF = type { ptr, i16 }
%struct.DOECap = type { ptr, i16, %struct.anon.7, %struct.anon.8, %struct.anon.9, ptr, ptr, i32, i32, i32, ptr, i16, i32 }
%struct.anon.7 = type { i8, i16 }
%struct.anon.8 = type { i8, i8, i8 }
%struct.anon.9 = type { i8, i8, i8, i8 }
%struct.VFIODevice = type { %struct.anon.10, %struct.anon.11, %struct.anon.12, ptr, ptr, ptr, ptr, ptr, i32, i32, i8, i8, i8, i8, i8, i32, i8, ptr, i32, i32, i32, ptr, ptr, i32, i32, i8, i8, i8, ptr, i32, ptr, ptr, %struct.anon.13 }
%struct.anon.10 = type { ptr, ptr }
%struct.anon.11 = type { ptr, ptr }
%struct.anon.12 = type { ptr, ptr }
%struct.anon.13 = type { ptr, ptr }
%struct.VFIOINTx = type { i8, i8, i8, %struct.EventNotifier, %struct.EventNotifier, %struct.PCIINTxRoute, i32, ptr }
%struct.PCIINTxRoute = type { i32, i32 }
%struct.VFIOBAR = type { %struct.VFIORegion, ptr, i64, i8, i8, i8, %struct.anon.14 }
%struct.VFIORegion = type { ptr, i64, ptr, i64, i32, i32, ptr, i8 }
%struct.anon.14 = type { ptr }
%struct.PCIHostDeviceAddress = type { i32, i32, i32, i32 }
%struct.QemuUUID = type { %union.anon.15 }
%union.anon.15 = type { %struct.anon.16 }
%struct.anon.16 = type { i32, i16, i16, i8, i8, [6 x i8] }
%struct.EventNotifier = type { i32, i32, i8 }
%struct.Notifier = type { ptr, %struct.anon.17 }
%struct.anon.17 = type { ptr, ptr }
%struct.VFIOMSIVector = type { %struct.EventNotifier, %struct.EventNotifier, ptr, i32, i8 }
%struct.VFIOMSIXInfo = type { i8, i8, i16, i32, i32, ptr, i8 }
%struct.vfio_irq_set = type { i32, i32, i32, i32, i32, [0 x i8] }

; Function Attrs: inlinehint nounwind sspstrong uwtable
define internal void @g_autoptr_cleanup_generic_gfree(ptr noundef %0) #3 {
  %2 = alloca ptr, align 8
  %3 = alloca ptr, align 8
  store ptr %0, ptr %2, align 8
  call void @llvm.lifetime.start.p0(i64 8, ptr %3) #19
  %4 = load ptr, ptr %2, align 8
  store ptr %4, ptr %3, align 8
  %5 = load ptr, ptr %3, align 8
  %6 = load ptr, ptr %5, align 8
  call void @g_free(ptr noundef %6)
  call void @llvm.lifetime.end.p0(i64 8, ptr %3) #19
  ret void
}

; Function Attrs: nounwind sspstrong uwtable
define internal i32 @vfio_enable_msix_no_vec(ptr noundef %0) #0 {
  %2 = alloca ptr, align 8
  %3 = alloca ptr, align 8
  %4 = alloca i32, align 4
  %5 = alloca i32, align 4
  %6 = alloca ptr, align 8
  store ptr %0, ptr %2, align 8
  call void @llvm.lifetime.start.p0(i64 8, ptr %3) #19
  store ptr null, ptr %3, align 8
  call void @llvm.lifetime.start.p0(i64 4, ptr %4) #19
  store i32 0, ptr %4, align 4
  call void @llvm.lifetime.start.p0(i64 4, ptr %5) #19
  store i32 0, ptr %5, align 4, !annotation !4
  call void @llvm.lifetime.start.p0(i64 8, ptr %6) #19
  store ptr null, ptr %6, align 8, !annotation !4
  store i32 24, ptr %5, align 4
  %7 = load i32, ptr %5, align 4
  %8 = sext i32 %7 to i64
  %9 = call noalias ptr @g_malloc0(i64 noundef %8) #22
  store ptr %9, ptr %3, align 8
  %10 = load i32, ptr %5, align 4
  %11 = load ptr, ptr %3, align 8
  %12 = getelementptr inbounds nuw %struct.vfio_irq_set, ptr %11, i32 0, i32 0
  store i32 %10, ptr %12, align 4
  %13 = load ptr, ptr %3, align 8
  %14 = getelementptr inbounds nuw %struct.vfio_irq_set, ptr %13, i32 0, i32 1
  store i32 36, ptr %14, align 4
  %15 = load ptr, ptr %3, align 8
  %16 = getelementptr inbounds nuw %struct.vfio_irq_set, ptr %15, i32 0, i32 2
  store i32 2, ptr %16, align 4
  %17 = load ptr, ptr %3, align 8
  %18 = getelementptr inbounds nuw %struct.vfio_irq_set, ptr %17, i32 0, i32 3
  store i32 0, ptr %18, align 4
  %19 = load ptr, ptr %3, align 8
  %20 = getelementptr inbounds nuw %struct.vfio_irq_set, ptr %19, i32 0, i32 4
  store i32 1, ptr %20, align 4
  %21 = load ptr, ptr %3, align 8
  %22 = getelementptr inbounds nuw %struct.vfio_irq_set, ptr %21, i32 0, i32 5
  store ptr %22, ptr %6, align 8
  %23 = load ptr, ptr %6, align 8
  store i32 -1, ptr %23, align 4
  %24 = load ptr, ptr %2, align 8
  %25 = getelementptr inbounds nuw %struct.VFIOPCIDevice, ptr %24, i32 0, i32 1
  %26 = getelementptr inbounds nuw %struct.VFIODevice, ptr %25, i32 0, i32 8
  %27 = load i32, ptr %26, align 8
  %28 = load ptr, ptr %3, align 8
  %29 = call i32 (i32, i64, ...) @ioctl(i32 noundef %27, i64 noundef 15214, ptr noundef %28) #19
  store i32 %29, ptr %4, align 4
  %30 = load i32, ptr %4, align 4
  call void @llvm.lifetime.end.p0(i64 8, ptr %6) #19
  call void @llvm.lifetime.end.p0(i64 4, ptr %5) #19
  call void @llvm.lifetime.end.p0(i64 4, ptr %4) #19
  call void @g_autoptr_cleanup_generic_gfree(ptr noundef %3)
  call void @llvm.lifetime.end.p0(i64 8, ptr %3) #19
  ret i32 %30
}

; Function Attrs: nounwind sspstrong uwtable
define internal i32 @vfio_enable_vectors(ptr noundef %0, i1 noundef zeroext %1) #0 {
  %3 = alloca i32, align 4
  %4 = alloca ptr, align 8
  %5 = alloca i8, align 1
  %6 = alloca ptr, align 8
  %7 = alloca i32, align 4
  %8 = alloca i32, align 4
  %9 = alloca i32, align 4
  %10 = alloca ptr, align 8
  %11 = alloca i32, align 4
  %12 = alloca i32, align 4
  store ptr %0, ptr %4, align 8
  %13 = zext i1 %1 to i8
  store i8 %13, ptr %5, align 1
  call void @llvm.lifetime.start.p0(i64 8, ptr %6) #19
  store ptr null, ptr %6, align 8, !annotation !4
  call void @llvm.lifetime.start.p0(i64 4, ptr %7) #19
  store i32 0, ptr %7, align 4
  call void @llvm.lifetime.start.p0(i64 4, ptr %8) #19
  store i32 0, ptr %8, align 4, !annotation !4
  call void @llvm.lifetime.start.p0(i64 4, ptr %9) #19
  store i32 0, ptr %9, align 4, !annotation !4
  call void @llvm.lifetime.start.p0(i64 8, ptr %10) #19
  store ptr null, ptr %10, align 8, !annotation !4
  %14 = load i8, ptr %5, align 1, !range !9, !noundef !10
  %15 = trunc i8 %14 to i1
  br i1 %15, label %16, label %31

16:                                               ; preds = %2
  %17 = load ptr, ptr %4, align 8
  %18 = getelementptr inbounds nuw %struct.VFIOPCIDevice, ptr %17, i32 0, i32 11
  %19 = load ptr, ptr %18, align 8
  %20 = getelementptr inbounds nuw %struct.VFIOMSIXInfo, ptr %19, i32 0, i32 6
  %21 = load i8, ptr %20, align 8, !range !9, !noundef !10
  %22 = trunc i8 %21 to i1
  br i1 %22, label %31, label %23

23:                                               ; preds = %16
  %24 = load ptr, ptr %4, align 8
  %25 = call i32 @vfio_enable_msix_no_vec(ptr noundef %24)
  store i32 %25, ptr %7, align 4
  %26 = load i32, ptr %7, align 4
  %27 = icmp ne i32 %26, 0
  br i1 %27, label %28, label %30

28:                                               ; preds = %23
  %29 = load i32, ptr %7, align 4
  store i32 %29, ptr %3, align 4
  store i32 1, ptr %11, align 4
  br label %132

30:                                               ; preds = %23
  br label %31

31:                                               ; preds = %30, %16, %2
  %32 = load ptr, ptr %4, align 8
  %33 = getelementptr inbounds nuw %struct.VFIOPCIDevice, ptr %32, i32 0, i32 12
  %34 = load i32, ptr %33, align 16
  %35 = sext i32 %34 to i64
  %36 = mul i64 %35, 4
  %37 = add i64 20, %36
  %38 = trunc i64 %37 to i32
  store i32 %38, ptr %9, align 4
  %39 = load i32, ptr %9, align 4
  %40 = sext i32 %39 to i64
  %41 = call noalias ptr @g_malloc0(i64 noundef %40) #22
  store ptr %41, ptr %6, align 8
  %42 = load i32, ptr %9, align 4
  %43 = load ptr, ptr %6, align 8
  %44 = getelementptr inbounds nuw %struct.vfio_irq_set, ptr %43, i32 0, i32 0
  store i32 %42, ptr %44, align 4
  %45 = load ptr, ptr %6, align 8
  %46 = getelementptr inbounds nuw %struct.vfio_irq_set, ptr %45, i32 0, i32 1
  store i32 36, ptr %46, align 4
  %47 = load i8, ptr %5, align 1, !range !9, !noundef !10
  %48 = trunc i8 %47 to i1
  %49 = select i1 %48, i32 2, i32 1
  %50 = load ptr, ptr %6, align 8
  %51 = getelementptr inbounds nuw %struct.vfio_irq_set, ptr %50, i32 0, i32 2
  store i32 %49, ptr %51, align 4
  %52 = load ptr, ptr %6, align 8
  %53 = getelementptr inbounds nuw %struct.vfio_irq_set, ptr %52, i32 0, i32 3
  store i32 0, ptr %53, align 4
  %54 = load ptr, ptr %4, align 8
  %55 = getelementptr inbounds nuw %struct.VFIOPCIDevice, ptr %54, i32 0, i32 12
  %56 = load i32, ptr %55, align 16
  %57 = load ptr, ptr %6, align 8
  %58 = getelementptr inbounds nuw %struct.vfio_irq_set, ptr %57, i32 0, i32 4
  store i32 %56, ptr %58, align 4
  %59 = load ptr, ptr %6, align 8
  %60 = getelementptr inbounds nuw %struct.vfio_irq_set, ptr %59, i32 0, i32 5
  store ptr %60, ptr %10, align 8
  store i32 0, ptr %8, align 4
  br label %61

61:                                               ; preds = %120, %31
  %62 = load i32, ptr %8, align 4
  %63 = load ptr, ptr %4, align 8
  %64 = getelementptr inbounds nuw %struct.VFIOPCIDevice, ptr %63, i32 0, i32 12
  %65 = load i32, ptr %64, align 16
  %66 = icmp slt i32 %62, %65
  br i1 %66, label %67, label %123

67:                                               ; preds = %61
  call void @llvm.lifetime.start.p0(i64 4, ptr %12) #19
  store i32 -1, ptr %12, align 4
  %68 = load ptr, ptr %4, align 8
  %69 = getelementptr inbounds nuw %struct.VFIOPCIDevice, ptr %68, i32 0, i32 10
  %70 = load ptr, ptr %69, align 16
  %71 = load i32, ptr %8, align 4
  %72 = sext i32 %71 to i64
  %73 = getelementptr inbounds %struct.VFIOMSIVector, ptr %70, i64 %72
  %74 = getelementptr inbounds nuw %struct.VFIOMSIVector, ptr %73, i32 0, i32 4
  %75 = load i8, ptr %74, align 4, !range !9, !noundef !10
  %76 = trunc i8 %75 to i1
  br i1 %76, label %77, label %114

77:                                               ; preds = %67
  %78 = load ptr, ptr %4, align 8
  %79 = getelementptr inbounds nuw %struct.VFIOPCIDevice, ptr %78, i32 0, i32 10
  %80 = load ptr, ptr %79, align 16
  %81 = load i32, ptr %8, align 4
  %82 = sext i32 %81 to i64
  %83 = getelementptr inbounds %struct.VFIOMSIVector, ptr %80, i64 %82
  %84 = getelementptr inbounds nuw %struct.VFIOMSIVector, ptr %83, i32 0, i32 3
  %85 = load i32, ptr %84, align 8
  %86 = icmp slt i32 %85, 0
  br i1 %86, label %95, label %87

87:                                               ; preds = %77
  %88 = load i8, ptr %5, align 1, !range !9, !noundef !10
  %89 = trunc i8 %88 to i1
  br i1 %89, label %90, label %104

90:                                               ; preds = %87
  %91 = load ptr, ptr %4, align 8
  %92 = getelementptr inbounds nuw %struct.VFIOPCIDevice, ptr %91, i32 0, i32 0
  %93 = load i32, ptr %8, align 4
  %94 = call zeroext i1 @msix_is_masked(ptr noundef %92, i32 noundef %93)
  br i1 %94, label %95, label %104

95:                                               ; preds = %90, %77
  %96 = load ptr, ptr %4, align 8
  %97 = getelementptr inbounds nuw %struct.VFIOPCIDevice, ptr %96, i32 0, i32 10
  %98 = load ptr, ptr %97, align 16
  %99 = load i32, ptr %8, align 4
  %100 = sext i32 %99 to i64
  %101 = getelementptr inbounds %struct.VFIOMSIVector, ptr %98, i64 %100
  %102 = getelementptr inbounds nuw %struct.VFIOMSIVector, ptr %101, i32 0, i32 0
  %103 = call i32 @event_notifier_get_fd(ptr noundef %102)
  store i32 %103, ptr %12, align 4
  br label %113

104:                                              ; preds = %90, %87
  %105 = load ptr, ptr %4, align 8
  %106 = getelementptr inbounds nuw %struct.VFIOPCIDevice, ptr %105, i32 0, i32 10
  %107 = load ptr, ptr %106, align 16
  %108 = load i32, ptr %8, align 4
  %109 = sext i32 %108 to i64
  %110 = getelementptr inbounds %struct.VFIOMSIVector, ptr %107, i64 %109
  %111 = getelementptr inbounds nuw %struct.VFIOMSIVector, ptr %110, i32 0, i32 1
  %112 = call i32 @event_notifier_get_fd(ptr noundef %111)
  store i32 %112, ptr %12, align 4
  br label %113

113:                                              ; preds = %104, %95
  br label %114

114:                                              ; preds = %113, %67
  %115 = load i32, ptr %12, align 4
  %116 = load ptr, ptr %10, align 8
  %117 = load i32, ptr %8, align 4
  %118 = sext i32 %117 to i64
  %119 = getelementptr inbounds i32, ptr %116, i64 %118
  store i32 %115, ptr %119, align 4
  call void @llvm.lifetime.end.p0(i64 4, ptr %12) #19
  br label %120

120:                                              ; preds = %114
  %121 = load i32, ptr %8, align 4
  %122 = add i32 %121, 1
  store i32 %122, ptr %8, align 4
  br label %61, !llvm.loop !15

123:                                              ; preds = %61
  %124 = load ptr, ptr %4, align 8
  %125 = getelementptr inbounds nuw %struct.VFIOPCIDevice, ptr %124, i32 0, i32 1
  %126 = getelementptr inbounds nuw %struct.VFIODevice, ptr %125, i32 0, i32 8
  %127 = load i32, ptr %126, align 8
  %128 = load ptr, ptr %6, align 8
  %129 = call i32 (i32, i64, ...) @ioctl(i32 noundef %127, i64 noundef 15214, ptr noundef %128) #19
  store i32 %129, ptr %7, align 4
  %130 = load ptr, ptr %6, align 8
  call void @g_free(ptr noundef %130)
  %131 = load i32, ptr %7, align 4
  store i32 %131, ptr %3, align 4
  store i32 1, ptr %11, align 4
  br label %132

132:                                              ; preds = %123, %28
  call void @llvm.lifetime.end.p0(i64 8, ptr %10) #19
  call void @llvm.lifetime.end.p0(i64 4, ptr %9) #19
  call void @llvm.lifetime.end.p0(i64 4, ptr %8) #19
  call void @llvm.lifetime.end.p0(i64 4, ptr %7) #19
  call void @llvm.lifetime.end.p0(i64 8, ptr %6) #19
  %133 = load i32, ptr %3, align 4
  ret i32 %133
}