; Function Attrs: nounwind sspstrong uwtable
define internal fastcc i32 @vfio_enable_vectors(ptr noundef %0, i1 noundef zeroext %1) unnamed_addr #0 {
  br i1 %1, label %3, label %19

3:                                                ; preds = %2
  %4 = getelementptr inbounds nuw i8, ptr %0, i64 3080
  %5 = load ptr, ptr %4, align 8
  %6 = getelementptr inbounds nuw i8, ptr %5, i64 24
  %7 = load i8, ptr %6, align 8, !range !6, !noundef !7
  %8 = trunc nuw i8 %7 to i1
  br i1 %8, label %19, label %9

9:                                                ; preds = %3
  %10 = tail call noalias dereferenceable_or_null(24) ptr @g_malloc0(i64 noundef 24) #30
  store i32 24, ptr %10, align 4
  %11 = getelementptr inbounds nuw i8, ptr %10, i64 4
  store i32 36, ptr %11, align 4
  %12 = getelementptr inbounds nuw i8, ptr %10, i64 8
  store i32 2, ptr %12, align 4
  %13 = getelementptr inbounds nuw i8, ptr %10, i64 12
  store i32 0, ptr %13, align 4
  %14 = getelementptr inbounds nuw i8, ptr %10, i64 16
  store i32 1, ptr %14, align 4
  %15 = getelementptr inbounds nuw i8, ptr %10, i64 20
  store i32 -1, ptr %15, align 4
  %16 = getelementptr inbounds nuw i8, ptr %0, i64 2840
  %17 = load i32, ptr %16, align 8
  %18 = tail call i32 (i32, i64, ...) @ioctl(i32 noundef %17, i64 noundef 15214, ptr noundef nonnull %10) #26
  tail call void @g_free(ptr noundef nonnull %10) #26
  %.not = icmp eq i32 %18, 0
  br i1 %.not, label %19, label %76

19:                                               ; preds = %9, %3, %2
  %20 = phi i32 [ 2, %9 ], [ 2, %3 ], [ 1, %2 ]
  %21 = getelementptr inbounds nuw i8, ptr %0, i64 3088
  %22 = load i32, ptr %21, align 16
  %23 = shl i32 %22, 2
  %24 = add i32 %23, 20
  %25 = sext i32 %24 to i64
  %26 = tail call noalias ptr @g_malloc0(i64 noundef %25) #30
  store i32 %24, ptr %26, align 4
  %27 = getelementptr inbounds nuw i8, ptr %26, i64 4
  store i32 36, ptr %27, align 4
  %28 = getelementptr inbounds nuw i8, ptr %26, i64 8
  store i32 %20, ptr %28, align 4
  %29 = getelementptr inbounds nuw i8, ptr %26, i64 12
  store i32 0, ptr %29, align 4
  %30 = load i32, ptr %21, align 16
  %31 = getelementptr inbounds nuw i8, ptr %26, i64 16
  store i32 %30, ptr %31, align 4
  %32 = getelementptr inbounds nuw i8, ptr %26, i64 20
  %33 = icmp sgt i32 %30, 0
  br i1 %33, label %.lr.ph, label %._crit_edge

.lr.ph:                                           ; preds = %19
  %34 = getelementptr inbounds nuw i8, ptr %0, i64 3072
  br i1 %1, label %.lr.ph.split.us, label %.lr.ph.split

.lr.ph.split.us:                                  ; preds = %.lr.ph, %53
  %indvars.iv44 = phi i64 [ %indvars.iv.next45, %53 ], [ 0, %.lr.ph ]
  %35 = load ptr, ptr %34, align 16
  %36 = getelementptr inbounds nuw %struct.VFIOMSIVector, ptr %35, i64 %indvars.iv44
  %37 = getelementptr inbounds nuw i8, ptr %36, i64 36
  %38 = load i8, ptr %37, align 4, !range !6, !noundef !7
  %39 = trunc nuw i8 %38 to i1
  br i1 %39, label %40, label %53

40:                                               ; preds = %.lr.ph.split.us
  %41 = getelementptr inbounds nuw i8, ptr %36, i64 32
  %42 = load i32, ptr %41, align 8
  %43 = icmp slt i32 %42, 0
  br i1 %43, label %49, label %44

44:                                               ; preds = %40
  %45 = trunc nuw nsw i64 %indvars.iv44 to i32
  %46 = tail call zeroext i1 @msix_is_masked(ptr noundef nonnull %0, i32 noundef %45) #26
  %.pre = load ptr, ptr %34, align 16
  br i1 %46, label %49, label %47

47:                                               ; preds = %44
  %48 = getelementptr inbounds nuw %struct.VFIOMSIVector, ptr %.pre, i64 %indvars.iv44, i32 1
  br label %.sink.split

49:                                               ; preds = %44, %40
  %50 = phi ptr [ %.pre, %44 ], [ %35, %40 ]
  %51 = getelementptr inbounds nuw %struct.VFIOMSIVector, ptr %50, i64 %indvars.iv44
  br label %.sink.split

.sink.split:                                      ; preds = %47, %49
  %.sink = phi ptr [ %51, %49 ], [ %48, %47 ]
  %52 = tail call i32 @event_notifier_get_fd(ptr noundef %.sink) #26
  br label %53

53:                                               ; preds = %.sink.split, %.lr.ph.split.us
  %.0.us = phi i32 [ -1, %.lr.ph.split.us ], [ %52, %.sink.split ]
  %54 = getelementptr inbounds nuw i32, ptr %32, i64 %indvars.iv44
  store i32 %.0.us, ptr %54, align 4
  %indvars.iv.next45 = add nuw nsw i64 %indvars.iv44, 1
  %55 = load i32, ptr %21, align 16
  %56 = sext i32 %55 to i64
  %57 = icmp slt i64 %indvars.iv.next45, %56
  br i1 %57, label %.lr.ph.split.us, label %._crit_edge, !llvm.loop !17

.lr.ph.split:                                     ; preds = %.lr.ph, %68
  %indvars.iv = phi i64 [ %indvars.iv.next, %68 ], [ 0, %.lr.ph ]
  %58 = load ptr, ptr %34, align 16
  %59 = getelementptr inbounds nuw %struct.VFIOMSIVector, ptr %58, i64 %indvars.iv
  %60 = getelementptr inbounds nuw i8, ptr %59, i64 36
  %61 = load i8, ptr %60, align 4, !range !6, !noundef !7
  %62 = trunc nuw i8 %61 to i1
  br i1 %62, label %.sink.split48, label %68

.sink.split48:                                    ; preds = %.lr.ph.split
  %63 = getelementptr inbounds nuw i8, ptr %59, i64 32
  %64 = load i32, ptr %63, align 8
  %65 = icmp slt i32 %64, 0
  %66 = getelementptr inbounds nuw %struct.VFIOMSIVector, ptr %58, i64 %indvars.iv, i32 1
  %.sink49 = select i1 %65, ptr %59, ptr %66
  %67 = tail call i32 @event_notifier_get_fd(ptr noundef nonnull %.sink49) #26
  br label %68

68:                                               ; preds = %.sink.split48, %.lr.ph.split
  %.0 = phi i32 [ -1, %.lr.ph.split ], [ %67, %.sink.split48 ]
  %69 = getelementptr inbounds nuw i32, ptr %32, i64 %indvars.iv
  store i32 %.0, ptr %69, align 4
  %indvars.iv.next = add nuw nsw i64 %indvars.iv, 1
  %70 = load i32, ptr %21, align 16
  %71 = sext i32 %70 to i64
  %72 = icmp slt i64 %indvars.iv.next, %71
  br i1 %72, label %.lr.ph.split, label %._crit_edge, !llvm.loop !17

._crit_edge:                                      ; preds = %68, %53, %19
  %73 = getelementptr inbounds nuw i8, ptr %0, i64 2840
  %74 = load i32, ptr %73, align 8
  %75 = tail call i32 (i32, i64, ...) @ioctl(i32 noundef %74, i64 noundef 15214, ptr noundef nonnull %26) #26
  tail call void @g_free(ptr noundef nonnull %26) #26
  br label %76

76:                                               ; preds = %9, %._crit_edge
  %.038 = phi i32 [ %75, %._crit_edge ], [ %18, %9 ]
  ret i32 %.038
}